; Function Attrs: mustprogress uwtable
define internal fastcc void @_ZN19OpenColorIO_v2_5dev12_GLOBAL__N_113PrintInStreamIPKcJS3_EEEvRNSt7__cxx1119basic_ostringstreamIcSt11char_traitsIcESaIcEEERKT_DpT0_(ptr noundef nonnull align 8 dereferenceable(112) %0, ptr %.0.val, ptr noundef %1) unnamed_addr #4 {
  %.not.i.i = icmp eq ptr %.0.val, null
  br i1 %.not.i.i, label %3, label %11

3:                                                ; preds = %2
  %4 = load ptr, ptr %0, align 8, !tbaa !9
  %5 = getelementptr i8, ptr %4, i64 -24
  %6 = load i64, ptr %5, align 8
  %7 = getelementptr inbounds i8, ptr %0, i64 %6
  %8 = getelementptr inbounds nuw i8, ptr %7, i64 32
  %9 = load i32, ptr %8, align 8, !tbaa !151
  %10 = or i32 %9, 1
  tail call void @_ZNSt9basic_iosIcSt11char_traitsIcEE5clearESt12_Ios_Iostate(ptr noundef nonnull align 8 dereferenceable(264) %7, i32 noundef %10)
  br label %_ZN19OpenColorIO_v2_5dev12_GLOBAL__N_113PrintInStreamIPKcEEvRNSt7__cxx1119basic_ostringstreamIcSt11char_traitsIcESaIcEEERKT_.exit

11:                                               ; preds = %2
  %12 = tail call noundef i64 @strlen(ptr noundef nonnull dereferenceable(1) %.0.val) #33
  %13 = tail call noundef nonnull align 8 dereferenceable(8) ptr @_ZSt16__ostream_insertIcSt11char_traitsIcEERSt13basic_ostreamIT_T0_ES6_PKS3_l(ptr noundef nonnull align 8 dereferenceable(112) %0, ptr noundef nonnull %.0.val, i64 noundef %12)
  br label %_ZN19OpenColorIO_v2_5dev12_GLOBAL__N_113PrintInStreamIPKcEEvRNSt7__cxx1119basic_ostringstreamIcSt11char_traitsIcESaIcEEERKT_.exit

_ZN19OpenColorIO_v2_5dev12_GLOBAL__N_113PrintInStreamIPKcEEvRNSt7__cxx1119basic_ostringstreamIcSt11char_traitsIcESaIcEEERKT_.exit: ; preds = %3, %11
  %.not.i.i4 = icmp eq ptr %1, null
  br i1 %.not.i.i4, label %14, label %22

14:                                               ; preds = %_ZN19OpenColorIO_v2_5dev12_GLOBAL__N_113PrintInStreamIPKcEEvRNSt7__cxx1119basic_ostringstreamIcSt11char_traitsIcESaIcEEERKT_.exit
  %15 = load ptr, ptr %0, align 8, !tbaa !9
  %16 = getelementptr i8, ptr %15, i64 -24
  %17 = load i64, ptr %16, align 8
  %18 = getelementptr inbounds i8, ptr %0, i64 %17
  %19 = getelementptr inbounds nuw i8, ptr %18, i64 32
  %20 = load i32, ptr %19, align 8, !tbaa !151
  %21 = or i32 %20, 1
  tail call void @_ZNSt9basic_iosIcSt11char_traitsIcEE5clearESt12_Ios_Iostate(ptr noundef nonnull align 8 dereferenceable(264) %18, i32 noundef %21)
  br label %_ZN19OpenColorIO_v2_5dev12_GLOBAL__N_113PrintInStreamIPKcEEvRNSt7__cxx1119basic_ostringstreamIcSt11char_traitsIcESaIcEEERKT_.exit5

22:                                               ; preds = %_ZN19OpenColorIO_v2_5dev12_GLOBAL__N_113PrintInStreamIPKcEEvRNSt7__cxx1119basic_ostringstreamIcSt11char_traitsIcESaIcEEERKT_.exit
  %23 = tail call noundef i64 @strlen(ptr noundef nonnull dereferenceable(1) %1) #33
  %24 = tail call noundef nonnull align 8 dereferenceable(8) ptr @_ZSt16__ostream_insertIcSt11char_traitsIcEERSt13basic_ostreamIT_T0_ES6_PKS3_l(ptr noundef nonnull align 8 dereferenceable(112) %0, ptr noundef nonnull %1, i64 noundef %23)
  br label %_ZN19OpenColorIO_v2_5dev12_GLOBAL__N_113PrintInStreamIPKcEEvRNSt7__cxx1119basic_ostringstreamIcSt11char_traitsIcESaIcEEERKT_.exit5

_ZN19OpenColorIO_v2_5dev12_GLOBAL__N_113PrintInStreamIPKcEEvRNSt7__cxx1119basic_ostringstreamIcSt11char_traitsIcESaIcEEERKT_.exit5: ; preds = %14, %22
  ret void
}